target datalayout = "e-m:e-p270:32:32-p271:32:32-p272:64:64-i64:64-i128:128-f80:128-n8:16:32:64-S128"
target triple = "x86_64-pc-linux-gnu"

@.str.66 = private unnamed_addr constant [14 x i8] c"UNKNOWN_VALUE\00", align 1
@.str.70 = private unnamed_addr constant [25 x i8] c"MBEDTLS_SSL_TLS_PRF_NONE\00", align 1
@.str.71 = private unnamed_addr constant [27 x i8] c"MBEDTLS_SSL_TLS_PRF_SHA384\00", align 1
@.str.72 = private unnamed_addr constant [27 x i8] c"MBEDTLS_SSL_TLS_PRF_SHA256\00", align 1
@.str.73 = private unnamed_addr constant [31 x i8] c"MBEDTLS_SSL_HKDF_EXPAND_SHA384\00", align 1
@.str.74 = private unnamed_addr constant [31 x i8] c"MBEDTLS_SSL_HKDF_EXPAND_SHA256\00", align 1

; Function Attrs: nounwind uwtable
define hidden ptr @mbedtls_tls_prf_types_str(i32 noundef %0) #0 {
  %2 = alloca ptr, align 8
  %3 = alloca i32, align 4
  store i32 %0, ptr %3, align 4, !tbaa !7
  %4 = load i32, ptr %3, align 4, !tbaa !7
  switch i32 %4, label %10 [
    i32 0, label %5
    i32 1, label %6
    i32 2, label %7
    i32 3, label %8
    i32 4, label %9
  ]

5:                                                ; preds = %1
  store ptr @.str.70, ptr %2, align 8
  br label %11

6:                                                ; preds = %1
  store ptr @.str.71, ptr %2, align 8
  br label %11

7:                                                ; preds = %1
  store ptr @.str.72, ptr %2, align 8
  br label %11

8:                                                ; preds = %1
  store ptr @.str.73, ptr %2, align 8
  br label %11

9:                                                ; preds = %1
  store ptr @.str.74, ptr %2, align 8
  br label %11

10:                                               ; preds = %1
  store ptr @.str.66, ptr %2, align 8
  br label %11

11:                                               ; preds = %10, %9, %8, %7, %6, %5
  %12 = load ptr, ptr %2, align 8
  ret ptr %12
}